target datalayout = "e-m:e-p270:32:32-p271:32:32-p272:64:64-i64:64-i128:128-f80:128-n8:16:32:64-S128"
target triple = "x86_64-pc-linux-gnu"

%struct._zend_phpdbg_globals = type { [11 x %struct._zend_array], %struct._zend_array, %struct._zend_array, ptr, ptr, %struct.phpdbg_frame_t, i32, ptr, %struct.phpdbg_lexer_data, ptr, %struct.sigaction, i32, i64, %struct.phpdbg_btree, %struct.phpdbg_btree, %struct._zend_array, %struct._zend_array, %struct._zend_array, %struct._zend_array, ptr, ptr, ptr, i8, ptr, ptr, ptr, i64, ptr, %struct._zval_struct, i32, i32, i8, i8, ptr, ptr, ptr, %struct._zend_array, ptr, ptr, ptr, [3 x %struct.anon.8], ptr, %struct.anon.9, i64, [2 x ptr], [3 x ptr], ptr, i8, ptr, ptr, [500 x i8], i32, %struct.phpdbg_signal_safe_mem, ptr, i64, ptr, i64 }
%struct.phpdbg_frame_t = type { i32, ptr, ptr }
%struct.phpdbg_lexer_data = type { i32, ptr, ptr, ptr, ptr, i32 }
%struct.sigaction = type { %union.anon.2, %struct.__sigset_t, i32, ptr }
%union.anon.2 = type { ptr }
%struct.__sigset_t = type { [16 x i64] }
%struct.phpdbg_btree = type { i64, i64, i8, ptr }
%struct._zval_struct = type { %union._zend_value, %union.anon.4, %union.anon.7 }
%union._zend_value = type { i64 }
%union.anon.4 = type { i32 }
%union.anon.7 = type { i32 }
%struct._zend_array = type { %struct._zend_refcounted_h, %union.anon.0, i32, %union.anon.1, i32, i32, i32, i32, i64, ptr }
%struct._zend_refcounted_h = type { i32, %union.anon }
%union.anon = type { i32 }
%union.anon.0 = type { i32 }
%union.anon.1 = type { ptr }
%struct.anon.8 = type { i32 }
%struct.anon.9 = type { i8, i32, i32, ptr, i32 }
%struct.phpdbg_signal_safe_mem = type { ptr, i8, ptr, ptr }

@phpdbg_globals = external global %struct._zend_phpdbg_globals, align 8
@.str.1 = private unnamed_addr constant [55 x i8] c"\0D---Type <return> to continue or q <return> to quit---\00", align 1
@.str.2 = private unnamed_addr constant [2 x i8] c"\0D\00", align 1

; Function Attrs: nounwind uwtable
define internal i32 @phpdbg_output_pager(i32 noundef %0, ptr noundef %1, i32 noundef %2) #0 {
  %4 = alloca i32, align 4
  %5 = alloca ptr, align 8
  %6 = alloca i32, align 4
  %7 = alloca i32, align 4
  %8 = alloca i32, align 4
  %9 = alloca ptr, align 8
  %10 = alloca ptr, align 8
  %11 = alloca [500 x i8], align 16
  %12 = alloca i64, align 8
  %13 = alloca i32, align 4
  %14 = alloca i64, align 8
  store i32 %0, ptr %4, align 4, !tbaa !39
  store ptr %1, ptr %5, align 8, !tbaa !4
  store i32 %2, ptr %6, align 4, !tbaa !39
  call void @llvm.lifetime.start.p0(i64 4, ptr %7) #7
  store i32 0, ptr %7, align 4, !tbaa !39
  call void @llvm.lifetime.start.p0(i64 4, ptr %8) #7
  store i32 0, ptr %8, align 4, !tbaa !39
  call void @llvm.lifetime.start.p0(i64 8, ptr %9) #7
  %15 = load ptr, ptr %5, align 8, !tbaa !4
  store ptr %15, ptr %9, align 8, !tbaa !4
  call void @llvm.lifetime.start.p0(i64 8, ptr %10) #7
  %16 = load ptr, ptr %5, align 8, !tbaa !4
  %17 = load i32, ptr %6, align 4, !tbaa !39
  %18 = sext i32 %17 to i64
  %19 = getelementptr inbounds i8, ptr %16, i64 %18
  store ptr %19, ptr %10, align 8, !tbaa !4
  br label %20

20:                                               ; preds = %84, %3
  %21 = load ptr, ptr %9, align 8, !tbaa !4
  %22 = load ptr, ptr %10, align 8, !tbaa !4
  %23 = load ptr, ptr %9, align 8, !tbaa !4
  %24 = ptrtoint ptr %22 to i64
  %25 = ptrtoint ptr %23 to i64
  %26 = sub i64 %24, %25
  %27 = call ptr @memchr(ptr noundef %21, i32 noundef 10, i64 noundef %26) #10
  store ptr %27, ptr %9, align 8, !tbaa !4
  %28 = icmp ne ptr %27, null
  br i1 %28, label %29, label %85

29:                                               ; preds = %20
  %30 = load i32, ptr %7, align 4, !tbaa !39
  %31 = add nsw i32 %30, 1
  store i32 %31, ptr %7, align 4, !tbaa !39
  %32 = load ptr, ptr %9, align 8, !tbaa !4
  %33 = getelementptr inbounds nuw i8, ptr %32, i32 1
  store ptr %33, ptr %9, align 8, !tbaa !4
  %34 = load i32, ptr %7, align 4, !tbaa !39
  %35 = sext i32 %34 to i64
  %36 = load i64, ptr getelementptr inbounds nuw (%struct._zend_phpdbg_globals, ptr @phpdbg_globals, i32 0, i32 56), align 8, !tbaa !45
  %37 = urem i64 %35, %36
  %38 = icmp eq i64 %37, 0
  br i1 %38, label %39, label %84

39:                                               ; preds = %29
  %40 = load i32, ptr %4, align 4, !tbaa !39
  %41 = load ptr, ptr %5, align 8, !tbaa !4
  %42 = load i32, ptr %8, align 4, !tbaa !39
  %43 = sext i32 %42 to i64
  %44 = getelementptr inbounds i8, ptr %41, i64 %43
  %45 = load ptr, ptr %9, align 8, !tbaa !4
  %46 = load ptr, ptr %5, align 8, !tbaa !4
  %47 = ptrtoint ptr %45 to i64
  %48 = ptrtoint ptr %46 to i64
  %49 = sub i64 %47, %48
  %50 = load i32, ptr %8, align 4, !tbaa !39
  %51 = sext i32 %50 to i64
  %52 = sub nsw i64 %49, %51
  %53 = call i64 @write(i32 noundef %40, ptr noundef %44, i64 noundef %52)
  %54 = load i32, ptr %8, align 4, !tbaa !39
  %55 = sext i32 %54 to i64
  %56 = add nsw i64 %55, %53
  %57 = trunc i64 %56 to i32
  store i32 %57, ptr %8, align 4, !tbaa !39
  %58 = load ptr, ptr %9, align 8, !tbaa !4
  %59 = load ptr, ptr %10, align 8, !tbaa !4
  %60 = load ptr, ptr %9, align 8, !tbaa !4
  %61 = ptrtoint ptr %59 to i64
  %62 = ptrtoint ptr %60 to i64
  %63 = sub i64 %61, %62
  %64 = call ptr @memchr(ptr noundef %58, i32 noundef 10, i64 noundef %63) #10
  %65 = icmp ne ptr %64, null
  br i1 %65, label %66, label %82

66:                                               ; preds = %39
  call void @llvm.lifetime.start.p0(i64 500, ptr %11) #7
  call void @llvm.lifetime.start.p0(i64 8, ptr %12) #7
  %67 = load i32, ptr %4, align 4, !tbaa !39
  %68 = call i64 @write(i32 noundef %67, ptr noundef @.str.1, i64 noundef 54)
  store i64 %68, ptr %12, align 8, !tbaa !46
  call void @llvm.lifetime.end.p0(i64 8, ptr %12) #7
  %69 = getelementptr inbounds [500 x i8], ptr %11, i64 0, i64 0
  %70 = call i32 @phpdbg_consume_stdin_line(ptr noundef %69)
  %71 = getelementptr inbounds [500 x i8], ptr %11, i64 0, i64 0
  %72 = load i8, ptr %71, align 16, !tbaa !41
  %73 = sext i8 %72 to i32
  %74 = icmp eq i32 %73, 113
  br i1 %74, label %75, label %76

75:                                               ; preds = %66
  store i32 3, ptr %13, align 4
  br label %79

76:                                               ; preds = %66
  call void @llvm.lifetime.start.p0(i64 8, ptr %14) #7
  %77 = load i32, ptr %4, align 4, !tbaa !39
  %78 = call i64 @write(i32 noundef %77, ptr noundef @.str.2, i64 noundef 1)
  store i64 %78, ptr %14, align 8, !tbaa !46
  call void @llvm.lifetime.end.p0(i64 8, ptr %14) #7
  store i32 0, ptr %13, align 4
  br label %79

79:                                               ; preds = %76, %75
  call void @llvm.lifetime.end.p0(i64 500, ptr %11) #7
  %80 = load i32, ptr %13, align 4
  switch i32 %80, label %125 [
    i32 0, label %81
    i32 3, label %85
  ]

81:                                               ; preds = %79
  br label %83

82:                                               ; preds = %39
  br label %85

83:                                               ; preds = %81
  br label %84

84:                                               ; preds = %83, %29
  br label %20

85:                                               ; preds = %82, %79, %20
  %86 = load i32, ptr %8, align 4, !tbaa !39
  %87 = icmp ne i32 %86, 0
  br i1 %87, label %88, label %109

88:                                               ; preds = %85
  %89 = load i32, ptr %7, align 4, !tbaa !39
  %90 = sext i32 %89 to i64
  %91 = load i64, ptr getelementptr inbounds nuw (%struct._zend_phpdbg_globals, ptr @phpdbg_globals, i32 0, i32 56), align 8, !tbaa !45
  %92 = urem i64 %90, %91
  %93 = icmp ne i64 %92, 0
  br i1 %93, label %94, label %109

94:                                               ; preds = %88
  %95 = load i32, ptr %4, align 4, !tbaa !39
  %96 = load ptr, ptr %5, align 8, !tbaa !4
  %97 = load i32, ptr %8, align 4, !tbaa !39
  %98 = sext i32 %97 to i64
  %99 = getelementptr inbounds i8, ptr %96, i64 %98
  %100 = load i32, ptr %6, align 4, !tbaa !39
  %101 = load i32, ptr %8, align 4, !tbaa !39
  %102 = sub nsw i32 %100, %101
  %103 = sext i32 %102 to i64
  %104 = call i64 @write(i32 noundef %95, ptr noundef %99, i64 noundef %103)
  %105 = load i32, ptr %8, align 4, !tbaa !39
  %106 = sext i32 %105 to i64
  %107 = add nsw i64 %106, %104
  %108 = trunc i64 %107 to i32
  store i32 %108, ptr %8, align 4, !tbaa !39
  br label %123

109:                                              ; preds = %88, %85
  %110 = load i32, ptr %8, align 4, !tbaa !39
  %111 = icmp ne i32 %110, 0
  br i1 %111, label %122, label %112

112:                                              ; preds = %109
  %113 = load i32, ptr %4, align 4, !tbaa !39
  %114 = load ptr, ptr %5, align 8, !tbaa !4
  %115 = load i32, ptr %6, align 4, !tbaa !39
  %116 = sext i32 %115 to i64
  %117 = call i64 @write(i32 noundef %113, ptr noundef %114, i64 noundef %116)
  %118 = load i32, ptr %8, align 4, !tbaa !39
  %119 = sext i32 %118 to i64
  %120 = add nsw i64 %119, %117
  %121 = trunc i64 %120 to i32
  store i32 %121, ptr %8, align 4, !tbaa !39
  br label %122

122:                                              ; preds = %112, %109
  br label %123

123:                                              ; preds = %122, %94
  %124 = load i32, ptr %8, align 4, !tbaa !39
  store i32 1, ptr %13, align 4
  call void @llvm.lifetime.end.p0(i64 8, ptr %10) #7
  call void @llvm.lifetime.end.p0(i64 8, ptr %9) #7
  call void @llvm.lifetime.end.p0(i64 4, ptr %8) #7
  call void @llvm.lifetime.end.p0(i64 4, ptr %7) #7
  ret i32 %124

125:                                              ; preds = %79
  unreachable
}

; Function Attrs: nounwind uwtable
define dso_local i32 @phpdbg_mixed_write(i32 noundef %0, ptr noundef %1, i32 noundef %2) #0 {
  %4 = alloca i32, align 4
  %5 = alloca i32, align 4
  %6 = alloca ptr, align 8
  %7 = alloca i32, align 4
  store i32 %0, ptr %5, align 4, !tbaa !39
  store ptr %1, ptr %6, align 8, !tbaa !4
  store i32 %2, ptr %7, align 4, !tbaa !39
  %8 = load i64, ptr getelementptr inbounds nuw (%struct._zend_phpdbg_globals, ptr @phpdbg_globals, i32 0, i32 54), align 8, !tbaa !44
  %9 = and i64 %8, 8589934592
  %10 = icmp ne i64 %9, 0
  br i1 %10, label %11, label %23

11:                                               ; preds = %3
  %12 = load i32, ptr getelementptr inbounds ([3 x %struct.anon.8], ptr getelementptr inbounds nuw (%struct._zend_phpdbg_globals, ptr @phpdbg_globals, i32 0, i32 40), i64 0, i64 1), align 4, !tbaa !42
  %13 = load i32, ptr %5, align 4, !tbaa !39
  %14 = icmp eq i32 %12, %13
  br i1 %14, label %15, label %23

15:                                               ; preds = %11
  %16 = load i64, ptr getelementptr inbounds nuw (%struct._zend_phpdbg_globals, ptr @phpdbg_globals, i32 0, i32 56), align 8, !tbaa !45
  %17 = icmp ugt i64 %16, 0
  br i1 %17, label %18, label %23

18:                                               ; preds = %15
  %19 = load i32, ptr %5, align 4, !tbaa !39
  %20 = load ptr, ptr %6, align 8, !tbaa !4
  %21 = load i32, ptr %7, align 4, !tbaa !39
  %22 = call i32 @phpdbg_output_pager(i32 noundef %19, ptr noundef %20, i32 noundef %21)
  store i32 %22, ptr %4, align 4
  br label %30

23:                                               ; preds = %15, %11, %3
  %24 = load i32, ptr %5, align 4, !tbaa !39
  %25 = load ptr, ptr %6, align 8, !tbaa !4
  %26 = load i32, ptr %7, align 4, !tbaa !39
  %27 = sext i32 %26 to i64
  %28 = call i64 @write(i32 noundef %24, ptr noundef %25, i64 noundef %27)
  %29 = trunc i64 %28 to i32
  store i32 %29, ptr %4, align 4
  br label %30

30:                                               ; preds = %23, %18
  %31 = load i32, ptr %4, align 4
  ret i32 %31
}