; Function Attrs: nounwind uwtable
define dso_local i32 @phpdbg_mixed_write(i32 noundef %0, ptr noundef %1, i32 noundef %2) local_unnamed_addr #0 {
  %4 = alloca [500 x i8], align 16
  %5 = load i64, ptr getelementptr inbounds nuw (i8, ptr @phpdbg_globals, i64 2184), align 8, !tbaa !43
  %6 = and i64 %5, 8589934592
  %.not = icmp eq i64 %6, 0
  br i1 %.not, label %59, label %7

7:                                                ; preds = %3
  %8 = load i32, ptr getelementptr inbounds nuw (i8, ptr @phpdbg_globals, i64 1508), align 4, !tbaa !40
  %9 = icmp eq i32 %8, %0
  %10 = load i64, ptr getelementptr inbounds nuw (i8, ptr @phpdbg_globals, i64 2200), align 8
  %11 = icmp ne i64 %10, 0
  %or.cond = select i1 %9, i1 %11, i1 false
  br i1 %or.cond, label %12, label %59

12:                                               ; preds = %7
  %13 = sext i32 %2 to i64
  %14 = getelementptr inbounds i8, ptr %1, i64 %13
  %15 = ptrtoint ptr %14 to i64
  %16 = tail call ptr @memchr(ptr noundef %1, i32 noundef 10, i64 noundef %13) #11
  %.not48.i = icmp eq ptr %16, null
  br i1 %.not48.i, label %.critedge.i, label %.lr.ph.i

.lr.ph.i:                                         ; preds = %12
  %17 = ptrtoint ptr %1 to i64
  br label %18

18:                                               ; preds = %42, %.lr.ph.i
  %19 = phi i64 [ %10, %.lr.ph.i ], [ %43, %42 ]
  %indvars.iv.i = phi i64 [ 0, %.lr.ph.i ], [ %indvars.iv.next.i, %42 ]
  %20 = phi ptr [ %16, %.lr.ph.i ], [ %44, %42 ]
  %.03649.i = phi i32 [ 0, %.lr.ph.i ], [ %.2.i, %42 ]
  %indvars.iv.next.i = add nuw nsw i64 %indvars.iv.i, 1
  %21 = getelementptr inbounds nuw i8, ptr %20, i64 1
  %22 = urem i64 %indvars.iv.next.i, %19
  %23 = icmp eq i64 %22, 0
  br i1 %23, label %24, label %._crit_edge.i

._crit_edge.i:                                    ; preds = %18
  %.pre59.i = ptrtoint ptr %21 to i64
  %.pre60.i = sub i64 %15, %.pre59.i
  br label %42

24:                                               ; preds = %18
  %25 = sext i32 %.03649.i to i64
  %26 = getelementptr inbounds i8, ptr %1, i64 %25
  %27 = ptrtoint ptr %21 to i64
  %28 = add i64 %25, %17
  %29 = sub i64 %27, %28
  %30 = tail call i64 @write(i32 noundef %0, ptr noundef %26, i64 noundef %29) #8
  %31 = trunc i64 %30 to i32
  %32 = add i32 %.03649.i, %31
  %33 = sub i64 %15, %27
  %34 = tail call ptr @memchr(ptr noundef nonnull %21, i32 noundef 10, i64 noundef %33) #11
  %.not40.i = icmp eq ptr %34, null
  br i1 %.not40.i, label %.loopexit.i, label %35

35:                                               ; preds = %24
  call void @llvm.lifetime.start.p0(i64 500, ptr nonnull %4) #8
  %36 = tail call i64 @write(i32 noundef %0, ptr noundef nonnull @.str.1, i64 noundef 54) #8
  %37 = call i32 @phpdbg_consume_stdin_line(ptr noundef nonnull %4)
  %38 = load i8, ptr %4, align 16, !tbaa !39
  %39 = icmp eq i8 %38, 113
  br i1 %39, label %41, label %.thread.i

.thread.i:                                        ; preds = %35
  %40 = tail call i64 @write(i32 noundef %0, ptr noundef nonnull @.str.2, i64 noundef 1) #8
  call void @llvm.lifetime.end.p0(i64 500, ptr nonnull %4) #8
  %.pre.i = load i64, ptr getelementptr inbounds nuw (i8, ptr @phpdbg_globals, i64 2200), align 8, !tbaa !44
  br label %42

41:                                               ; preds = %35
  call void @llvm.lifetime.end.p0(i64 500, ptr nonnull %4) #8
  br label %.loopexit.i

42:                                               ; preds = %.thread.i, %._crit_edge.i
  %.pre-phi61.i = phi i64 [ %.pre60.i, %._crit_edge.i ], [ %33, %.thread.i ]
  %43 = phi i64 [ %19, %._crit_edge.i ], [ %.pre.i, %.thread.i ]
  %.2.i = phi i32 [ %.03649.i, %._crit_edge.i ], [ %32, %.thread.i ]
  %44 = tail call ptr @memchr(ptr noundef nonnull %21, i32 noundef 10, i64 noundef %.pre-phi61.i) #11
  %.not.i = icmp eq ptr %44, null
  br i1 %.not.i, label %.loopexit.i, label %18

.loopexit.i:                                      ; preds = %42, %24, %41
  %.137.i = phi i32 [ %32, %41 ], [ %32, %24 ], [ %.2.i, %42 ]
  %.not41.i = icmp eq i32 %.137.i, 0
  br i1 %.not41.i, label %.critedge.i, label %45

45:                                               ; preds = %.loopexit.i
  %sext.i = shl i64 %indvars.iv.next.i, 32
  %46 = ashr exact i64 %sext.i, 32
  %47 = load i64, ptr getelementptr inbounds nuw (i8, ptr @phpdbg_globals, i64 2200), align 8, !tbaa !44
  %48 = urem i64 %46, %47
  %.not42.i = icmp eq i64 %48, 0
  br i1 %.not42.i, label %phpdbg_output_pager.exit, label %49

49:                                               ; preds = %45
  %50 = sext i32 %.137.i to i64
  %51 = getelementptr inbounds i8, ptr %1, i64 %50
  %52 = sub nsw i32 %2, %.137.i
  %53 = sext i32 %52 to i64
  %54 = tail call i64 @write(i32 noundef %0, ptr noundef nonnull %51, i64 noundef %53) #8
  %55 = trunc i64 %54 to i32
  %56 = add i32 %.137.i, %55
  br label %phpdbg_output_pager.exit

.critedge.i:                                      ; preds = %.loopexit.i, %12
  %57 = tail call i64 @write(i32 noundef %0, ptr noundef %1, i64 noundef %13) #8
  %58 = trunc i64 %57 to i32
  br label %phpdbg_output_pager.exit

59:                                               ; preds = %7, %3
  %60 = sext i32 %2 to i64
  %61 = tail call i64 @write(i32 noundef %0, ptr noundef %1, i64 noundef %60) #8
  %62 = trunc i64 %61 to i32
  br label %phpdbg_output_pager.exit

phpdbg_output_pager.exit:                         ; preds = %.critedge.i, %49, %45, %59
  %.0 = phi i32 [ %62, %59 ], [ %56, %49 ], [ %58, %.critedge.i ], [ %.137.i, %45 ]
  ret i32 %.0
}